target datalayout = "e-m:e-p270:32:32-p271:32:32-p272:64:64-i64:64-i128:128-f80:128-n8:16:32:64-S128"
target triple = "x86_64-unknown-linux-gnu"

%class.act_cache = type <{ ptr, %class.cmap, %class.svector, i32, i32, i32, [4 x i8] }>
%class.cmap = type { %class.chashtable }
%class.chashtable = type { ptr, i32, i32, i32, i32, i32, i32, i32, ptr, ptr, ptr }
%class.svector = type { %class.vector }
%class.vector = type { ptr }
%"struct.std::pair" = type <{ ptr, i32, [4 x i8] }>
%"struct.cmap<std::pair<expr *, unsigned int>, expr *, act_cache::entry_hash, default_eq<std::pair<expr *, unsigned int>>>::key_value" = type { %"struct.std::pair", ptr }
%class.ast = type { i32, i24, i32, i32 }

; Function Attrs: mustprogress nounwind uwtable
define linkonce_odr hidden noundef i32 @_ZNK3ast13get_ref_countEv(ptr noundef nonnull align 4 dereferenceable(16) %this) #5 comdat align 2 {
entry:
  %this.addr = alloca ptr, align 8
  store ptr %this, ptr %this.addr, align 8
  %this1 = load ptr, ptr %this.addr, align 8
  %m_ref_count = getelementptr inbounds %class.ast, ptr %this1, i32 0, i32 2
  %0 = load i32, ptr %m_ref_count, align 4
  ret i32 %0
}

; Function Attrs: mustprogress nounwind uwtable
define linkonce_odr hidden void @_ZN3ast7dec_refEv(ptr noundef nonnull align 4 dereferenceable(16) %this) #5 comdat align 2 {
entry:
  %this.addr = alloca ptr, align 8
  store ptr %this, ptr %this.addr, align 8
  %this1 = load ptr, ptr %this.addr, align 8
  %m_ref_count = getelementptr inbounds %class.ast, ptr %this1, i32 0, i32 2
  %0 = load i32, ptr %m_ref_count, align 4
  %dec = add i32 %0, -1
  store i32 %dec, ptr %m_ref_count, align 4
  ret void
}

; Function Attrs: mustprogress nounwind uwtable
define linkonce_odr hidden void @_ZN3ast7inc_refEv(ptr noundef nonnull align 4 dereferenceable(16) %this) #5 comdat align 2 {
entry:
  %this.addr = alloca ptr, align 8
  store ptr %this, ptr %this.addr, align 8
  %this1 = load ptr, ptr %this.addr, align 8
  %m_ref_count = getelementptr inbounds %class.ast, ptr %this1, i32 0, i32 2
  %0 = load i32, ptr %m_ref_count, align 4
  %inc = add i32 %0, 1
  store i32 %inc, ptr %m_ref_count, align 4
  ret void
}

; Function Attrs: mustprogress nounwind uwtable
define linkonce_odr hidden void @_ZN4cmapISt4pairIP4exprjES2_N9act_cache10entry_hashE10default_eqIS3_EE9key_valueC2ERKS3_RKS2_(ptr noundef nonnull align 8 dereferenceable(24) %this, ptr noundef nonnull align 8 dereferenceable(12) %k, ptr noundef nonnull align 8 dereferenceable(8) %v) unnamed_addr #5 comdat align 2 {
entry:
  %this.addr = alloca ptr, align 8
  %k.addr = alloca ptr, align 8
  %v.addr = alloca ptr, align 8
  store ptr %this, ptr %this.addr, align 8
  store ptr %k, ptr %k.addr, align 8
  store ptr %v, ptr %v.addr, align 8
  %this1 = load ptr, ptr %this.addr, align 8
  %m_key = getelementptr inbounds %"struct.cmap<std::pair<expr *, unsigned int>, expr *, act_cache::entry_hash, default_eq<std::pair<expr *, unsigned int>>>::key_value", ptr %this1, i32 0, i32 0
  %0 = load ptr, ptr %k.addr, align 8
  call void @llvm.memcpy.p0.p0.i64(ptr align 8 %m_key, ptr align 8 %0, i64 16, i1 false)
  %m_value = getelementptr inbounds %"struct.cmap<std::pair<expr *, unsigned int>, expr *, act_cache::entry_hash, default_eq<std::pair<expr *, unsigned int>>>::key_value", ptr %this1, i32 0, i32 1
  %1 = load ptr, ptr %v.addr, align 8
  %2 = load ptr, ptr %1, align 8
  store ptr %2, ptr %m_value, align 8
  ret void
}

; Function Attrs: mustprogress uwtable
define linkonce_odr hidden void @_ZN11ast_manager7dec_refEP3ast(ptr noundef nonnull align 8 dereferenceable(976) %this, ptr noundef %n) #4 comdat align 2 {
entry:
  %this.addr = alloca ptr, align 8
  %n.addr = alloca ptr, align 8
  store ptr %this, ptr %this.addr, align 8
  store ptr %n, ptr %n.addr, align 8
  %this1 = load ptr, ptr %this.addr, align 8
  %0 = load ptr, ptr %n.addr, align 8
  %tobool = icmp ne ptr %0, null
  br i1 %tobool, label %if.then, label %if.end3

if.then:                                          ; preds = %entry
  %1 = load ptr, ptr %n.addr, align 8
  call void @_ZN3ast7dec_refEv(ptr noundef nonnull align 4 dereferenceable(16) %1)
  %2 = load ptr, ptr %n.addr, align 8
  %call = call noundef i32 @_ZNK3ast13get_ref_countEv(ptr noundef nonnull align 4 dereferenceable(16) %2)
  %cmp = icmp eq i32 %call, 0
  br i1 %cmp, label %if.then2, label %if.end

if.then2:                                         ; preds = %if.then
  %3 = load ptr, ptr %n.addr, align 8
  call void @_ZN11ast_manager11delete_nodeEP3ast(ptr noundef nonnull align 8 dereferenceable(976) %this1, ptr noundef %3)
  br label %if.end

if.end:                                           ; preds = %if.then2, %if.then
  br label %if.end3

if.end3:                                          ; preds = %if.end, %entry
  ret void
}

; Function Attrs: mustprogress uwtable
define linkonce_odr hidden noundef nonnull align 8 dereferenceable(8) ptr @_ZN6vectorISt4pairIP4exprjELb0EjE9push_backERKS3_(ptr noundef nonnull align 8 dereferenceable(8) %this, ptr noundef nonnull align 8 dereferenceable(12) %elem) #4 comdat align 2 {
entry:
  %this.addr = alloca ptr, align 8
  %elem.addr = alloca ptr, align 8
  store ptr %this, ptr %this.addr, align 8
  store ptr %elem, ptr %elem.addr, align 8
  %this1 = load ptr, ptr %this.addr, align 8
  %m_data = getelementptr inbounds %class.vector, ptr %this1, i32 0, i32 0
  %0 = load ptr, ptr %m_data, align 8
  %cmp = icmp eq ptr %0, null
  br i1 %cmp, label %if.then, label %lor.lhs.false

lor.lhs.false:                                    ; preds = %entry
  %m_data2 = getelementptr inbounds %class.vector, ptr %this1, i32 0, i32 0
  %1 = load ptr, ptr %m_data2, align 8
  %arrayidx = getelementptr inbounds i32, ptr %1, i64 -1
  %2 = load i32, ptr %arrayidx, align 4
  %m_data3 = getelementptr inbounds %class.vector, ptr %this1, i32 0, i32 0
  %3 = load ptr, ptr %m_data3, align 8
  %arrayidx4 = getelementptr inbounds i32, ptr %3, i64 -2
  %4 = load i32, ptr %arrayidx4, align 4
  %cmp5 = icmp eq i32 %2, %4
  br i1 %cmp5, label %if.then, label %if.end

if.then:                                          ; preds = %lor.lhs.false, %entry
  call void @_ZN6vectorISt4pairIP4exprjELb0EjE13expand_vectorEv(ptr noundef nonnull align 8 dereferenceable(8) %this1)
  br label %if.end

if.end:                                           ; preds = %if.then, %lor.lhs.false
  %m_data6 = getelementptr inbounds %class.vector, ptr %this1, i32 0, i32 0
  %5 = load ptr, ptr %m_data6, align 8
  %m_data7 = getelementptr inbounds %class.vector, ptr %this1, i32 0, i32 0
  %6 = load ptr, ptr %m_data7, align 8
  %arrayidx8 = getelementptr inbounds i32, ptr %6, i64 -1
  %7 = load i32, ptr %arrayidx8, align 4
  %idx.ext = zext i32 %7 to i64
  %add.ptr = getelementptr inbounds %"struct.std::pair", ptr %5, i64 %idx.ext
  %8 = load ptr, ptr %elem.addr, align 8
  call void @llvm.memcpy.p0.p0.i64(ptr align 8 %add.ptr, ptr align 8 %8, i64 16, i1 false)
  %m_data9 = getelementptr inbounds %class.vector, ptr %this1, i32 0, i32 0
  %9 = load ptr, ptr %m_data9, align 8
  %arrayidx10 = getelementptr inbounds i32, ptr %9, i64 -1
  %10 = load i32, ptr %arrayidx10, align 4
  %inc = add i32 %10, 1
  store i32 %inc, ptr %arrayidx10, align 4
  ret ptr %this1
}

; Function Attrs: mustprogress uwtable
define linkonce_odr hidden void @_ZN11ast_manager7inc_refEP3ast(ptr noundef nonnull align 8 dereferenceable(976) %this, ptr noundef %n) #4 comdat align 2 {
entry:
  %this.addr = alloca ptr, align 8
  %n.addr = alloca ptr, align 8
  store ptr %this, ptr %this.addr, align 8
  store ptr %n, ptr %n.addr, align 8
  %0 = load ptr, ptr %n.addr, align 8
  %tobool = icmp ne ptr %0, null
  br i1 %tobool, label %if.then, label %if.end

if.then:                                          ; preds = %entry
  %1 = load ptr, ptr %n.addr, align 8
  call void @_ZN3ast7inc_refEv(ptr noundef nonnull align 4 dereferenceable(16) %1)
  br label %if.end

if.end:                                           ; preds = %if.then, %entry
  ret void
}

; Function Attrs: mustprogress uwtable
define linkonce_odr hidden noundef nonnull align 8 dereferenceable(24) ptr @_ZN4cmapISt4pairIP4exprjES2_N9act_cache10entry_hashE10default_eqIS3_EE19insert_if_not_thereERKS3_RKS2_(ptr noundef nonnull align 8 dereferenceable(64) %this, ptr noundef nonnull align 8 dereferenceable(12) %k, ptr noundef nonnull align 8 dereferenceable(8) %v) #4 comdat align 2 {
entry:
  %this.addr = alloca ptr, align 8
  %k.addr = alloca ptr, align 8
  %v.addr = alloca ptr, align 8
  %ref.tmp = alloca %"struct.cmap<std::pair<expr *, unsigned int>, expr *, act_cache::entry_hash, default_eq<std::pair<expr *, unsigned int>>>::key_value", align 8
  store ptr %this, ptr %this.addr, align 8
  store ptr %k, ptr %k.addr, align 8
  store ptr %v, ptr %v.addr, align 8
  %this1 = load ptr, ptr %this.addr, align 8
  %m_table = getelementptr inbounds %class.cmap, ptr %this1, i32 0, i32 0
  %0 = load ptr, ptr %k.addr, align 8
  %1 = load ptr, ptr %v.addr, align 8
  call void @_ZN4cmapISt4pairIP4exprjES2_N9act_cache10entry_hashE10default_eqIS3_EE9key_valueC2ERKS3_RKS2_(ptr noundef nonnull align 8 dereferenceable(24) %ref.tmp, ptr noundef nonnull align 8 dereferenceable(12) %0, ptr noundef nonnull align 8 dereferenceable(8) %1)
  %call = call noundef nonnull align 8 dereferenceable(24) ptr @_ZN10chashtableIN4cmapISt4pairIP4exprjES3_N9act_cache10entry_hashE10default_eqIS4_EE9key_valueENS9_19key_value_hash_procENS9_17key_value_eq_procEE19insert_if_not_thereERKSA_(ptr noundef nonnull align 8 dereferenceable(64) %m_table, ptr noundef nonnull align 8 dereferenceable(24) %ref.tmp)
  ret ptr %call
}

; Function Attrs: mustprogress nounwind uwtable
define linkonce_odr hidden void @_ZNSt4pairIP4exprjEC2IRS1_RjTnNSt9enable_ifIXaaclsr5_PCCPE22_MoveConstructiblePairIT_T0_EEclsr5_PCCPE30_ImplicitlyMoveConvertiblePairIS7_S8_EEEbE4typeELb1EEEOS7_OS8_(ptr noundef nonnull align 8 dereferenceable(12) %this, ptr noundef nonnull align 8 dereferenceable(8) %__x, ptr noundef nonnull align 4 dereferenceable(4) %__y) unnamed_addr #5 comdat align 2 {
entry:
  %this.addr = alloca ptr, align 8
  %__x.addr = alloca ptr, align 8
  %__y.addr = alloca ptr, align 8
  store ptr %this, ptr %this.addr, align 8
  store ptr %__x, ptr %__x.addr, align 8
  store ptr %__y, ptr %__y.addr, align 8
  %this1 = load ptr, ptr %this.addr, align 8
  %first = getelementptr inbounds %"struct.std::pair", ptr %this1, i32 0, i32 0
  %0 = load ptr, ptr %__x.addr, align 8
  %1 = load ptr, ptr %0, align 8
  store ptr %1, ptr %first, align 8
  %second = getelementptr inbounds %"struct.std::pair", ptr %this1, i32 0, i32 1
  %2 = load ptr, ptr %__y.addr, align 8
  %3 = load i32, ptr %2, align 4
  store i32 %3, ptr %second, align 8
  ret void
}

; Function Attrs: mustprogress uwtable
define hidden void @_ZN9act_cache6insertEP4exprjS1_(ptr noundef nonnull align 8 dereferenceable(92) %this, ptr noundef %k, i32 noundef %offset, ptr noundef %v) #4 align 2 {
entry:
  %this.addr = alloca ptr, align 8
  %k.addr = alloca ptr, align 8
  %offset.addr = alloca i32, align 4
  %v.addr = alloca ptr, align 8
  %e = alloca %"struct.std::pair", align 8
  %dummy = alloca ptr, align 8
  %entry2 = alloca ptr, align 8
  store ptr %this, ptr %this.addr, align 8
  store ptr %k, ptr %k.addr, align 8
  store i32 %offset, ptr %offset.addr, align 4
  store ptr %v, ptr %v.addr, align 8
  %this1 = load ptr, ptr %this.addr, align 8
  call void @_ZNSt4pairIP4exprjEC2IRS1_RjTnNSt9enable_ifIXaaclsr5_PCCPE22_MoveConstructiblePairIT_T0_EEclsr5_PCCPE30_ImplicitlyMoveConvertiblePairIS7_S8_EEEbE4typeELb1EEEOS7_OS8_(ptr noundef nonnull align 8 dereferenceable(12) %e, ptr noundef nonnull align 8 dereferenceable(8) %k.addr, ptr noundef nonnull align 4 dereferenceable(4) %offset.addr)
  %m_unused = getelementptr inbounds %class.act_cache, ptr %this1, i32 0, i32 4
  %0 = load i32, ptr %m_unused, align 4
  %m_max_unused = getelementptr inbounds %class.act_cache, ptr %this1, i32 0, i32 5
  %1 = load i32, ptr %m_max_unused, align 8
  %cmp = icmp uge i32 %0, %1
  br i1 %cmp, label %if.then, label %if.end

if.then:                                          ; preds = %entry
  call void @_ZN9act_cache10del_unusedEv(ptr noundef nonnull align 8 dereferenceable(92) %this1)
  br label %if.end

if.end:                                           ; preds = %if.then, %entry
  store ptr inttoptr (i64 1 to ptr), ptr %dummy, align 8
  %m_table = getelementptr inbounds %class.act_cache, ptr %this1, i32 0, i32 1
  %call = call noundef nonnull align 8 dereferenceable(24) ptr @_ZN4cmapISt4pairIP4exprjES2_N9act_cache10entry_hashE10default_eqIS3_EE19insert_if_not_thereERKS3_RKS2_(ptr noundef nonnull align 8 dereferenceable(64) %m_table, ptr noundef nonnull align 8 dereferenceable(12) %e, ptr noundef nonnull align 8 dereferenceable(8) %dummy)
  store ptr %call, ptr %entry2, align 8
  %2 = load ptr, ptr %entry2, align 8
  %m_value = getelementptr inbounds %"struct.cmap<std::pair<expr *, unsigned int>, expr *, act_cache::entry_hash, default_eq<std::pair<expr *, unsigned int>>>::key_value", ptr %2, i32 0, i32 1
  %3 = load ptr, ptr %m_value, align 8
  %4 = load ptr, ptr %dummy, align 8
  %cmp3 = icmp eq ptr %3, %4
  br i1 %cmp3, label %if.then4, label %if.else

if.then4:                                         ; preds = %if.end
  %m_manager = getelementptr inbounds %class.act_cache, ptr %this1, i32 0, i32 0
  %5 = load ptr, ptr %m_manager, align 8
  %6 = load ptr, ptr %k.addr, align 8
  call void @_ZN11ast_manager7inc_refEP3ast(ptr noundef nonnull align 8 dereferenceable(976) %5, ptr noundef %6)
  %m_manager5 = getelementptr inbounds %class.act_cache, ptr %this1, i32 0, i32 0
  %7 = load ptr, ptr %m_manager5, align 8
  %8 = load ptr, ptr %v.addr, align 8
  call void @_ZN11ast_manager7inc_refEP3ast(ptr noundef nonnull align 8 dereferenceable(976) %7, ptr noundef %8)
  %9 = load ptr, ptr %v.addr, align 8
  %10 = load ptr, ptr %entry2, align 8
  %m_value6 = getelementptr inbounds %"struct.cmap<std::pair<expr *, unsigned int>, expr *, act_cache::entry_hash, default_eq<std::pair<expr *, unsigned int>>>::key_value", ptr %10, i32 0, i32 1
  store ptr %9, ptr %m_value6, align 8
  %m_queue = getelementptr inbounds %class.act_cache, ptr %this1, i32 0, i32 2
  %call7 = call noundef nonnull align 8 dereferenceable(8) ptr @_ZN6vectorISt4pairIP4exprjELb0EjE9push_backERKS3_(ptr noundef nonnull align 8 dereferenceable(8) %m_queue, ptr noundef nonnull align 8 dereferenceable(12) %e)
  %m_unused8 = getelementptr inbounds %class.act_cache, ptr %this1, i32 0, i32 4
  %11 = load i32, ptr %m_unused8, align 4
  %inc = add i32 %11, 1
  store i32 %inc, ptr %m_unused8, align 4
  br label %if.end19

if.else:                                          ; preds = %if.end
  %12 = load ptr, ptr %entry2, align 8
  %m_value9 = getelementptr inbounds %"struct.cmap<std::pair<expr *, unsigned int>, expr *, act_cache::entry_hash, default_eq<std::pair<expr *, unsigned int>>>::key_value", ptr %12, i32 0, i32 1
  %13 = load ptr, ptr %m_value9, align 8
  %14 = ptrtoint ptr %13 to i64
  %and = and i64 %14, -8
  %15 = inttoptr i64 %and to ptr
  %16 = load ptr, ptr %v.addr, align 8
  %cmp10 = icmp eq ptr %15, %16
  br i1 %cmp10, label %if.then11, label %if.else12

if.then11:                                        ; preds = %if.else
  br label %if.end18

if.else12:                                        ; preds = %if.else
  %m_manager13 = getelementptr inbounds %class.act_cache, ptr %this1, i32 0, i32 0
  %17 = load ptr, ptr %m_manager13, align 8
  %18 = load ptr, ptr %v.addr, align 8
  call void @_ZN11ast_manager7inc_refEP3ast(ptr noundef nonnull align 8 dereferenceable(976) %17, ptr noundef %18)
  %m_manager14 = getelementptr inbounds %class.act_cache, ptr %this1, i32 0, i32 0
  %19 = load ptr, ptr %m_manager14, align 8
  %20 = load ptr, ptr %entry2, align 8
  %m_value15 = getelementptr inbounds %"struct.cmap<std::pair<expr *, unsigned int>, expr *, act_cache::entry_hash, default_eq<std::pair<expr *, unsigned int>>>::key_value", ptr %20, i32 0, i32 1
  %21 = load ptr, ptr %m_value15, align 8
  %22 = ptrtoint ptr %21 to i64
  %and16 = and i64 %22, -8
  %23 = inttoptr i64 %and16 to ptr
  call void @_ZN11ast_manager7dec_refEP3ast(ptr noundef nonnull align 8 dereferenceable(976) %19, ptr noundef %23)
  %24 = load ptr, ptr %v.addr, align 8
  %25 = load ptr, ptr %entry2, align 8
  %m_value17 = getelementptr inbounds %"struct.cmap<std::pair<expr *, unsigned int>, expr *, act_cache::entry_hash, default_eq<std::pair<expr *, unsigned int>>>::key_value", ptr %25, i32 0, i32 1
  store ptr %24, ptr %m_value17, align 8
  br label %if.end18

if.end18:                                         ; preds = %if.else12, %if.then11
  br label %if.end19

if.end19:                                         ; preds = %if.end18, %if.then4
  ret void
}