; Function Attrs: mustprogress uwtable
define hidden void @_ZN9act_cache6insertEP4exprjS1_(ptr noundef nonnull align 8 dereferenceable(92) %this, ptr noundef %k, i32 noundef %offset, ptr noundef %v) local_unnamed_addr #5 align 2 {
entry:
  %ref.tmp.i = alloca %"struct.cmap<std::pair<expr *, unsigned int>, expr *, act_cache::entry_hash, default_eq<std::pair<expr *, unsigned int>>>::key_value", align 8
  %m_unused = getelementptr inbounds i8, ptr %this, i64 84
  %0 = load i32, ptr %m_unused, align 4
  %m_max_unused = getelementptr inbounds i8, ptr %this, i64 88
  %1 = load i32, ptr %m_max_unused, align 8
  %cmp.not = icmp ult i32 %0, %1
  br i1 %cmp.not, label %if.end, label %if.then

if.then:                                          ; preds = %entry
  tail call void @_ZN9act_cache10del_unusedEv(ptr noundef nonnull align 8 dereferenceable(92) %this)
  br label %if.end

if.end:                                           ; preds = %if.then, %entry
  %m_table = getelementptr inbounds i8, ptr %this, i64 8
  call void @llvm.lifetime.start.p0(i64 24, ptr nonnull %ref.tmp.i)
  store ptr %k, ptr %ref.tmp.i, align 8
  %e.sroa.3.0.ref.tmp.i.sroa_idx = getelementptr inbounds i8, ptr %ref.tmp.i, i64 8
  store i32 %offset, ptr %e.sroa.3.0.ref.tmp.i.sroa_idx, align 8
  %m_value.i.i = getelementptr inbounds i8, ptr %ref.tmp.i, i64 16
  store ptr inttoptr (i64 1 to ptr), ptr %m_value.i.i, align 8
  %call.i = call noundef nonnull align 8 dereferenceable(24) ptr @_ZN10chashtableIN4cmapISt4pairIP4exprjES3_N9act_cache10entry_hashE10default_eqIS4_EE9key_valueENS9_19key_value_hash_procENS9_17key_value_eq_procEE19insert_if_not_thereERKSA_(ptr noundef nonnull align 8 dereferenceable(64) %m_table, ptr noundef nonnull align 8 dereferenceable(24) %ref.tmp.i)
  call void @llvm.lifetime.end.p0(i64 24, ptr nonnull %ref.tmp.i)
  %m_value = getelementptr inbounds i8, ptr %call.i, i64 16
  %2 = load ptr, ptr %m_value, align 8
  %cmp3 = icmp eq ptr %2, inttoptr (i64 1 to ptr)
  br i1 %cmp3, label %if.then4, label %if.else

if.then4:                                         ; preds = %if.end
  %tobool.not.i = icmp eq ptr %k, null
  br i1 %tobool.not.i, label %_ZN11ast_manager7inc_refEP3ast.exit, label %if.then.i

if.then.i:                                        ; preds = %if.then4
  %m_ref_count.i.i = getelementptr inbounds i8, ptr %k, i64 8
  %3 = load i32, ptr %m_ref_count.i.i, align 4
  %inc.i.i = add i32 %3, 1
  store i32 %inc.i.i, ptr %m_ref_count.i.i, align 4
  br label %_ZN11ast_manager7inc_refEP3ast.exit

_ZN11ast_manager7inc_refEP3ast.exit:              ; preds = %if.then4, %if.then.i
  %tobool.not.i9 = icmp eq ptr %v, null
  br i1 %tobool.not.i9, label %_ZN11ast_manager7inc_refEP3ast.exit13, label %if.then.i10

if.then.i10:                                      ; preds = %_ZN11ast_manager7inc_refEP3ast.exit
  %m_ref_count.i.i11 = getelementptr inbounds i8, ptr %v, i64 8
  %4 = load i32, ptr %m_ref_count.i.i11, align 4
  %inc.i.i12 = add i32 %4, 1
  store i32 %inc.i.i12, ptr %m_ref_count.i.i11, align 4
  br label %_ZN11ast_manager7inc_refEP3ast.exit13

_ZN11ast_manager7inc_refEP3ast.exit13:            ; preds = %_ZN11ast_manager7inc_refEP3ast.exit, %if.then.i10
  store ptr %v, ptr %m_value, align 8
  %m_queue = getelementptr inbounds i8, ptr %this, i64 72
  %5 = load ptr, ptr %m_queue, align 8
  %cmp.i = icmp eq ptr %5, null
  br i1 %cmp.i, label %if.then.i14, label %lor.lhs.false.i

lor.lhs.false.i:                                  ; preds = %_ZN11ast_manager7inc_refEP3ast.exit13
  %arrayidx.i = getelementptr inbounds i8, ptr %5, i64 -4
  %6 = load i32, ptr %arrayidx.i, align 4
  %arrayidx4.i = getelementptr inbounds i8, ptr %5, i64 -8
  %7 = load i32, ptr %arrayidx4.i, align 4
  %cmp5.i = icmp eq i32 %6, %7
  br i1 %cmp5.i, label %if.then.i14, label %_ZN6vectorISt4pairIP4exprjELb0EjE9push_backERKS3_.exit

if.then.i14:                                      ; preds = %lor.lhs.false.i, %_ZN11ast_manager7inc_refEP3ast.exit13
  call void @_ZN6vectorISt4pairIP4exprjELb0EjE13expand_vectorEv(ptr noundef nonnull align 8 dereferenceable(8) %m_queue)
  %.pre.i = load ptr, ptr %m_queue, align 8
  %arrayidx8.phi.trans.insert.i = getelementptr inbounds i8, ptr %.pre.i, i64 -4
  %.pre1.i = load i32, ptr %arrayidx8.phi.trans.insert.i, align 4
  br label %_ZN6vectorISt4pairIP4exprjELb0EjE9push_backERKS3_.exit

_ZN6vectorISt4pairIP4exprjELb0EjE9push_backERKS3_.exit: ; preds = %lor.lhs.false.i, %if.then.i14
  %8 = phi i32 [ %.pre1.i, %if.then.i14 ], [ %6, %lor.lhs.false.i ]
  %9 = phi ptr [ %.pre.i, %if.then.i14 ], [ %5, %lor.lhs.false.i ]
  %idx.ext.i = zext i32 %8 to i64
  %add.ptr.i = getelementptr inbounds %"struct.std::pair", ptr %9, i64 %idx.ext.i
  store ptr %k, ptr %add.ptr.i, align 8
  %e.sroa.3.0.add.ptr.i.sroa_idx = getelementptr inbounds i8, ptr %add.ptr.i, i64 8
  store i32 %offset, ptr %e.sroa.3.0.add.ptr.i.sroa_idx, align 8
  %10 = load ptr, ptr %m_queue, align 8
  %arrayidx10.i = getelementptr inbounds i8, ptr %10, i64 -4
  %11 = load i32, ptr %arrayidx10.i, align 4
  %inc.i = add i32 %11, 1
  store i32 %inc.i, ptr %arrayidx10.i, align 4
  %12 = load i32, ptr %m_unused, align 4
  %inc = add i32 %12, 1
  store i32 %inc, ptr %m_unused, align 4
  br label %if.end19

if.else:                                          ; preds = %if.end
  %13 = ptrtoint ptr %2 to i64
  %and = and i64 %13, -8
  %14 = inttoptr i64 %and to ptr
  %cmp10 = icmp eq ptr %14, %v
  br i1 %cmp10, label %if.end19, label %if.else12

if.else12:                                        ; preds = %if.else
  %tobool.not.i15 = icmp eq ptr %v, null
  br i1 %tobool.not.i15, label %_ZN11ast_manager7inc_refEP3ast.exit19, label %if.then.i16

if.then.i16:                                      ; preds = %if.else12
  %m_ref_count.i.i17 = getelementptr inbounds i8, ptr %v, i64 8
  %15 = load i32, ptr %m_ref_count.i.i17, align 4
  %inc.i.i18 = add i32 %15, 1
  store i32 %inc.i.i18, ptr %m_ref_count.i.i17, align 4
  %.pre = load ptr, ptr %m_value, align 8
  %.pre29 = ptrtoint ptr %.pre to i64
  %.pre30 = and i64 %.pre29, -8
  %.pre31 = inttoptr i64 %.pre30 to ptr
  br label %_ZN11ast_manager7inc_refEP3ast.exit19

_ZN11ast_manager7inc_refEP3ast.exit19:            ; preds = %if.else12, %if.then.i16
  %.pre-phi32 = phi ptr [ %14, %if.else12 ], [ %.pre31, %if.then.i16 ]
  %and16.pre-phi = phi i64 [ %and, %if.else12 ], [ %.pre30, %if.then.i16 ]
  %16 = load ptr, ptr %this, align 8
  %tobool.not.i20 = icmp eq i64 %and16.pre-phi, 0
  br i1 %tobool.not.i20, label %_ZN11ast_manager7dec_refEP3ast.exit, label %if.then.i21

if.then.i21:                                      ; preds = %_ZN11ast_manager7inc_refEP3ast.exit19
  %m_ref_count.i.i22 = getelementptr inbounds i8, ptr %.pre-phi32, i64 8
  %17 = load i32, ptr %m_ref_count.i.i22, align 4
  %dec.i.i = add i32 %17, -1
  store i32 %dec.i.i, ptr %m_ref_count.i.i22, align 4
  %cmp.i23 = icmp eq i32 %dec.i.i, 0
  br i1 %cmp.i23, label %if.then2.i, label %_ZN11ast_manager7dec_refEP3ast.exit

if.then2.i:                                       ; preds = %if.then.i21
  call void @_ZN11ast_manager11delete_nodeEP3ast(ptr noundef nonnull align 8 dereferenceable(976) %16, ptr noundef nonnull %.pre-phi32)
  br label %_ZN11ast_manager7dec_refEP3ast.exit

_ZN11ast_manager7dec_refEP3ast.exit:              ; preds = %_ZN11ast_manager7inc_refEP3ast.exit19, %if.then.i21, %if.then2.i
  store ptr %v, ptr %m_value, align 8
  br label %if.end19

if.end19:                                         ; preds = %_ZN11ast_manager7dec_refEP3ast.exit, %if.else, %_ZN6vectorISt4pairIP4exprjELb0EjE9push_backERKS3_.exit
  ret void
}